target datalayout = "e-m:e-p270:32:32-p271:32:32-p272:64:64-i64:64-i128:128-f80:128-n8:16:32:64-S128"
target triple = "x86_64-pc-linux-gnu"

%struct.ckh_t = type { i64, i64, i32, i32, ptr, ptr, ptr }
%struct.ckhc_t = type { ptr, ptr }

; Function Attrs: nounwind uwtable
define internal i64 @ckh_bucket_search(ptr noundef %0, i64 noundef %1, ptr noundef %2) #0 {
  %4 = alloca i64, align 8
  %5 = alloca ptr, align 8
  %6 = alloca i64, align 8
  %7 = alloca ptr, align 8
  %8 = alloca ptr, align 8
  %9 = alloca i32, align 4
  %10 = alloca i32, align 4
  store ptr %0, ptr %5, align 8, !tbaa !8
  store i64 %1, ptr %6, align 8, !tbaa !9
  store ptr %2, ptr %7, align 8, !tbaa !8
  call void @llvm.lifetime.start.p0(i64 8, ptr %8) #11
  call void @llvm.lifetime.start.p0(i64 4, ptr %9) #11
  store i32 0, ptr %9, align 4, !tbaa !15
  br label %11

11:                                               ; preds = %45, %3
  %12 = load i32, ptr %9, align 4, !tbaa !15
  %13 = zext i32 %12 to i64
  %14 = icmp ult i64 %13, 4
  br i1 %14, label %15, label %48

15:                                               ; preds = %11
  %16 = load ptr, ptr %5, align 8, !tbaa !8
  %17 = getelementptr inbounds nuw %struct.ckh_t, ptr %16, i32 0, i32 6
  %18 = load ptr, ptr %17, align 8, !tbaa !22
  %19 = load i64, ptr %6, align 8, !tbaa !9
  %20 = shl i64 %19, 2
  %21 = load i32, ptr %9, align 4, !tbaa !15
  %22 = zext i32 %21 to i64
  %23 = add i64 %20, %22
  %24 = getelementptr inbounds nuw %struct.ckhc_t, ptr %18, i64 %23
  store ptr %24, ptr %8, align 8, !tbaa !8
  %25 = load ptr, ptr %8, align 8, !tbaa !8
  %26 = getelementptr inbounds nuw %struct.ckhc_t, ptr %25, i32 0, i32 0
  %27 = load ptr, ptr %26, align 8, !tbaa !35
  %28 = icmp ne ptr %27, null
  br i1 %28, label %29, label %44

29:                                               ; preds = %15
  %30 = load ptr, ptr %5, align 8, !tbaa !8
  %31 = getelementptr inbounds nuw %struct.ckh_t, ptr %30, i32 0, i32 5
  %32 = load ptr, ptr %31, align 8, !tbaa !19
  %33 = load ptr, ptr %7, align 8, !tbaa !8
  %34 = load ptr, ptr %8, align 8, !tbaa !8
  %35 = getelementptr inbounds nuw %struct.ckhc_t, ptr %34, i32 0, i32 0
  %36 = load ptr, ptr %35, align 8, !tbaa !35
  %37 = call zeroext i1 %32(ptr noundef %33, ptr noundef %36)
  br i1 %37, label %38, label %44

38:                                               ; preds = %29
  %39 = load i64, ptr %6, align 8, !tbaa !9
  %40 = shl i64 %39, 2
  %41 = load i32, ptr %9, align 4, !tbaa !15
  %42 = zext i32 %41 to i64
  %43 = add i64 %40, %42
  store i64 %43, ptr %4, align 8
  store i32 1, ptr %10, align 4
  br label %49

44:                                               ; preds = %29, %15
  br label %45

45:                                               ; preds = %44
  %46 = load i32, ptr %9, align 4, !tbaa !15
  %47 = add i32 %46, 1
  store i32 %47, ptr %9, align 4, !tbaa !15
  br label %11

48:                                               ; preds = %11
  store i64 -1, ptr %4, align 8
  store i32 1, ptr %10, align 4
  br label %49

49:                                               ; preds = %48, %38
  call void @llvm.lifetime.end.p0(i64 4, ptr %9) #11
  call void @llvm.lifetime.end.p0(i64 8, ptr %8) #11
  %50 = load i64, ptr %4, align 8
  ret i64 %50
}

; Function Attrs: nounwind uwtable
define internal i64 @ckh_isearch(ptr noundef %0, ptr noundef %1) #0 {
  %3 = alloca i64, align 8
  %4 = alloca ptr, align 8
  %5 = alloca ptr, align 8
  %6 = alloca [2 x i64], align 16
  %7 = alloca i64, align 8
  %8 = alloca i64, align 8
  %9 = alloca i32, align 4
  store ptr %0, ptr %4, align 8, !tbaa !8
  store ptr %1, ptr %5, align 8, !tbaa !8
  call void @llvm.lifetime.start.p0(i64 16, ptr %6) #11
  call void @llvm.lifetime.start.p0(i64 8, ptr %7) #11
  call void @llvm.lifetime.start.p0(i64 8, ptr %8) #11
  br label %10

10:                                               ; preds = %2
  br label %11

11:                                               ; preds = %10
  br label %12

12:                                               ; preds = %11
  %13 = load ptr, ptr %4, align 8, !tbaa !8
  %14 = getelementptr inbounds nuw %struct.ckh_t, ptr %13, i32 0, i32 4
  %15 = load ptr, ptr %14, align 8, !tbaa !18
  %16 = load ptr, ptr %5, align 8, !tbaa !8
  %17 = getelementptr inbounds [2 x i64], ptr %6, i64 0, i64 0
  call void %15(ptr noundef %16, ptr noundef %17)
  %18 = getelementptr inbounds [2 x i64], ptr %6, i64 0, i64 0
  %19 = load i64, ptr %18, align 16, !tbaa !9
  %20 = load ptr, ptr %4, align 8, !tbaa !8
  %21 = getelementptr inbounds nuw %struct.ckh_t, ptr %20, i32 0, i32 3
  %22 = load i32, ptr %21, align 4, !tbaa !17
  %23 = zext i32 %22 to i64
  %24 = shl i64 1, %23
  %25 = sub i64 %24, 1
  %26 = and i64 %19, %25
  store i64 %26, ptr %7, align 8, !tbaa !9
  %27 = load ptr, ptr %4, align 8, !tbaa !8
  %28 = load i64, ptr %7, align 8, !tbaa !9
  %29 = load ptr, ptr %5, align 8, !tbaa !8
  %30 = call i64 @ckh_bucket_search(ptr noundef %27, i64 noundef %28, ptr noundef %29)
  store i64 %30, ptr %8, align 8, !tbaa !9
  %31 = load i64, ptr %8, align 8, !tbaa !9
  %32 = icmp ne i64 %31, -1
  br i1 %32, label %33, label %35

33:                                               ; preds = %12
  %34 = load i64, ptr %8, align 8, !tbaa !9
  store i64 %34, ptr %3, align 8
  store i32 1, ptr %9, align 4
  br label %50

35:                                               ; preds = %12
  %36 = getelementptr inbounds [2 x i64], ptr %6, i64 0, i64 1
  %37 = load i64, ptr %36, align 8, !tbaa !9
  %38 = load ptr, ptr %4, align 8, !tbaa !8
  %39 = getelementptr inbounds nuw %struct.ckh_t, ptr %38, i32 0, i32 3
  %40 = load i32, ptr %39, align 4, !tbaa !17
  %41 = zext i32 %40 to i64
  %42 = shl i64 1, %41
  %43 = sub i64 %42, 1
  %44 = and i64 %37, %43
  store i64 %44, ptr %7, align 8, !tbaa !9
  %45 = load ptr, ptr %4, align 8, !tbaa !8
  %46 = load i64, ptr %7, align 8, !tbaa !9
  %47 = load ptr, ptr %5, align 8, !tbaa !8
  %48 = call i64 @ckh_bucket_search(ptr noundef %45, i64 noundef %46, ptr noundef %47)
  store i64 %48, ptr %8, align 8, !tbaa !9
  %49 = load i64, ptr %8, align 8, !tbaa !9
  store i64 %49, ptr %3, align 8
  store i32 1, ptr %9, align 4
  br label %50

50:                                               ; preds = %35, %33
  call void @llvm.lifetime.end.p0(i64 8, ptr %8) #11
  call void @llvm.lifetime.end.p0(i64 8, ptr %7) #11
  call void @llvm.lifetime.end.p0(i64 16, ptr %6) #11
  %51 = load i64, ptr %3, align 8
  ret i64 %51
}

; Function Attrs: nounwind uwtable
define zeroext i1 @duckdb_je_ckh_search(ptr noundef %0, ptr noundef %1, ptr noundef %2, ptr noundef %3) #0 {
  %5 = alloca i1, align 1
  %6 = alloca ptr, align 8
  %7 = alloca ptr, align 8
  %8 = alloca ptr, align 8
  %9 = alloca ptr, align 8
  %10 = alloca i64, align 8
  %11 = alloca i32, align 4
  store ptr %0, ptr %6, align 8, !tbaa !8
  store ptr %1, ptr %7, align 8, !tbaa !8
  store ptr %2, ptr %8, align 8, !tbaa !8
  store ptr %3, ptr %9, align 8, !tbaa !8
  call void @llvm.lifetime.start.p0(i64 8, ptr %10) #11
  br label %12

12:                                               ; preds = %4
  br label %13

13:                                               ; preds = %12
  br label %14

14:                                               ; preds = %13
  %15 = load ptr, ptr %6, align 8, !tbaa !8
  %16 = load ptr, ptr %7, align 8, !tbaa !8
  %17 = call i64 @ckh_isearch(ptr noundef %15, ptr noundef %16)
  store i64 %17, ptr %10, align 8, !tbaa !9
  %18 = load i64, ptr %10, align 8, !tbaa !9
  %19 = icmp ne i64 %18, -1
  br i1 %19, label %20, label %45

20:                                               ; preds = %14
  %21 = load ptr, ptr %8, align 8, !tbaa !8
  %22 = icmp ne ptr %21, null
  br i1 %22, label %23, label %32

23:                                               ; preds = %20
  %24 = load ptr, ptr %6, align 8, !tbaa !8
  %25 = getelementptr inbounds nuw %struct.ckh_t, ptr %24, i32 0, i32 6
  %26 = load ptr, ptr %25, align 8, !tbaa !22
  %27 = load i64, ptr %10, align 8, !tbaa !9
  %28 = getelementptr inbounds nuw %struct.ckhc_t, ptr %26, i64 %27
  %29 = getelementptr inbounds nuw %struct.ckhc_t, ptr %28, i32 0, i32 0
  %30 = load ptr, ptr %29, align 8, !tbaa !35
  %31 = load ptr, ptr %8, align 8, !tbaa !8
  store ptr %30, ptr %31, align 8, !tbaa !8
  br label %32

32:                                               ; preds = %23, %20
  %33 = load ptr, ptr %9, align 8, !tbaa !8
  %34 = icmp ne ptr %33, null
  br i1 %34, label %35, label %44

35:                                               ; preds = %32
  %36 = load ptr, ptr %6, align 8, !tbaa !8
  %37 = getelementptr inbounds nuw %struct.ckh_t, ptr %36, i32 0, i32 6
  %38 = load ptr, ptr %37, align 8, !tbaa !22
  %39 = load i64, ptr %10, align 8, !tbaa !9
  %40 = getelementptr inbounds nuw %struct.ckhc_t, ptr %38, i64 %39
  %41 = getelementptr inbounds nuw %struct.ckhc_t, ptr %40, i32 0, i32 1
  %42 = load ptr, ptr %41, align 8, !tbaa !37
  %43 = load ptr, ptr %9, align 8, !tbaa !8
  store ptr %42, ptr %43, align 8, !tbaa !8
  br label %44

44:                                               ; preds = %35, %32
  store i1 false, ptr %5, align 1
  store i32 1, ptr %11, align 4
  br label %46

45:                                               ; preds = %14
  store i1 true, ptr %5, align 1
  store i32 1, ptr %11, align 4
  br label %46

46:                                               ; preds = %45, %44
  call void @llvm.lifetime.end.p0(i64 8, ptr %10) #11
  %47 = load i1, ptr %5, align 1
  ret i1 %47
}