; Function Attrs: nounwind uwtable
define noundef zeroext i1 @duckdb_je_ckh_search(ptr noundef readonly captures(none) %0, ptr noundef %1, ptr noundef writeonly captures(address_is_null) %2, ptr noundef writeonly captures(address_is_null) %3) local_unnamed_addr #0 {
  %5 = alloca [2 x i64], align 16
  call void @llvm.lifetime.start.p0(i64 16, ptr nonnull %5) #15
  %6 = getelementptr inbounds nuw i8, ptr %0, i64 24
  %7 = load ptr, ptr %6, align 8, !tbaa !13
  call void %7(ptr noundef %1, ptr noundef nonnull %5) #15
  %8 = load i64, ptr %5, align 16, !tbaa !17
  %9 = getelementptr inbounds nuw i8, ptr %0, i64 20
  %10 = load i32, ptr %9, align 4, !tbaa !12
  %11 = zext nneg i32 %10 to i64
  %notmask.i = shl nsw i64 -1, %11
  %12 = xor i64 %notmask.i, -1
  %13 = and i64 %8, %12
  %14 = getelementptr inbounds nuw i8, ptr %0, i64 40
  %15 = shl i64 %13, 2
  %16 = getelementptr inbounds nuw i8, ptr %0, i64 32
  br label %17

17:                                               ; preds = %25, %4
  %indvars.iv.i.i = phi i64 [ 0, %4 ], [ %indvars.iv.next.i.i, %25 ]
  %18 = load ptr, ptr %14, align 8, !tbaa !51
  %19 = add nuw nsw i64 %indvars.iv.i.i, %15
  %20 = getelementptr inbounds nuw %struct.ckhc_t, ptr %18, i64 %19
  %21 = load ptr, ptr %20, align 8, !tbaa !61
  %.not.i.i = icmp eq ptr %21, null
  br i1 %.not.i.i, label %25, label %22

22:                                               ; preds = %17
  %23 = load ptr, ptr %16, align 8, !tbaa !14
  %24 = call zeroext i1 %23(ptr noundef %1, ptr noundef nonnull %21) #15
  br i1 %24, label %ckh_bucket_search.exit.i, label %25

25:                                               ; preds = %22, %17
  %indvars.iv.next.i.i = add nuw nsw i64 %indvars.iv.i.i, 1
  %exitcond.not.i.i = icmp eq i64 %indvars.iv.next.i.i, 4
  br i1 %exitcond.not.i.i, label %ckh_bucket_search.exit.thread.i, label %17

ckh_bucket_search.exit.i:                         ; preds = %22
  %.not.i = icmp eq i64 %19, -1
  br i1 %.not.i, label %ckh_bucket_search.exit.thread.i, label %ckh_isearch.exit.thread19

ckh_isearch.exit.thread19:                        ; preds = %ckh_bucket_search.exit.i
  call void @llvm.lifetime.end.p0(i64 16, ptr nonnull %5) #15
  br label %42

ckh_bucket_search.exit.thread.i:                  ; preds = %25, %ckh_bucket_search.exit.i
  %26 = getelementptr inbounds nuw i8, ptr %5, i64 8
  %27 = load i64, ptr %26, align 8, !tbaa !17
  %28 = load i32, ptr %9, align 4, !tbaa !12
  %29 = zext nneg i32 %28 to i64
  %notmask14.i = shl nsw i64 -1, %29
  %30 = xor i64 %notmask14.i, -1
  %31 = and i64 %27, %30
  %32 = shl i64 %31, 2
  br label %33

33:                                               ; preds = %41, %ckh_bucket_search.exit.thread.i
  %indvars.iv.i15.i = phi i64 [ 0, %ckh_bucket_search.exit.thread.i ], [ %indvars.iv.next.i17.i, %41 ]
  %34 = load ptr, ptr %14, align 8, !tbaa !51
  %35 = add nuw nsw i64 %indvars.iv.i15.i, %32
  %36 = getelementptr inbounds nuw %struct.ckhc_t, ptr %34, i64 %35
  %37 = load ptr, ptr %36, align 8, !tbaa !61
  %.not.i16.i = icmp eq ptr %37, null
  br i1 %.not.i16.i, label %41, label %38

38:                                               ; preds = %33
  %39 = load ptr, ptr %16, align 8, !tbaa !14
  %40 = call zeroext i1 %39(ptr noundef %1, ptr noundef nonnull %37) #15
  br i1 %40, label %ckh_isearch.exit, label %41

41:                                               ; preds = %38, %33
  %indvars.iv.next.i17.i = add nuw nsw i64 %indvars.iv.i15.i, 1
  %exitcond.not.i18.i = icmp eq i64 %indvars.iv.next.i17.i, 4
  br i1 %exitcond.not.i18.i, label %ckh_isearch.exit.thread, label %33

ckh_isearch.exit.thread:                          ; preds = %41
  call void @llvm.lifetime.end.p0(i64 16, ptr nonnull %5) #15
  br label %52

ckh_isearch.exit:                                 ; preds = %38
  call void @llvm.lifetime.end.p0(i64 16, ptr nonnull %5) #15
  %.not = icmp eq i64 %35, -1
  br i1 %.not, label %52, label %42

42:                                               ; preds = %ckh_isearch.exit.thread19, %ckh_isearch.exit
  %.0.i22 = phi i64 [ %19, %ckh_isearch.exit.thread19 ], [ %35, %ckh_isearch.exit ]
  %.not14 = icmp eq ptr %2, null
  br i1 %.not14, label %47, label %43

43:                                               ; preds = %42
  %44 = load ptr, ptr %14, align 8, !tbaa !51
  %45 = getelementptr inbounds nuw %struct.ckhc_t, ptr %44, i64 %.0.i22
  %46 = load ptr, ptr %45, align 8, !tbaa !61
  store ptr %46, ptr %2, align 8, !tbaa !63
  br label %47

47:                                               ; preds = %43, %42
  %.not15 = icmp eq ptr %3, null
  br i1 %.not15, label %52, label %48

48:                                               ; preds = %47
  %49 = load ptr, ptr %14, align 8, !tbaa !51
  %50 = getelementptr inbounds nuw %struct.ckhc_t, ptr %49, i64 %.0.i22, i32 1
  %51 = load ptr, ptr %50, align 8, !tbaa !64
  store ptr %51, ptr %3, align 8, !tbaa !63
  br label %52

52:                                               ; preds = %ckh_isearch.exit.thread, %ckh_isearch.exit, %47, %48
  %.not18 = phi i1 [ true, %ckh_isearch.exit.thread ], [ true, %ckh_isearch.exit ], [ false, %47 ], [ false, %48 ]
  ret i1 %.not18
}